ccopy_reg
_reconstructor
p1
(chtmresearch.frameworks.nlp.classify_htm
ClassificationModelHTM
p2
c__builtin__
object
p3
NtRp4
(dp5
S'currentDocument'
p6
NsS'verbosity'
p7
I0
sS'retina'
p8
S'en_associative_64_univ'
p9
sS'networkConfig'
p10
(dp11
S'classifierRegionConfig'
p12
(dp13
S'regionEnabled'
p14
I01
sS'regionParams'
p15
(dp16
S'distanceMethod'
p17
S'pctOverlapOfInput'
p18
sS'k'
I5000
sS'maxCategoryCount'
p19
I1
ssS'regionType'
p20
S'py.KNNClassifierRegion'
p21
sS'regionName'
p22
S'classifier'
p23
ssS'tpRegionConfig'
p24
(dp25
g14
I01
sg15
(dp26
S'columnCount'
p27
I4096
sS'poolerType'
p28
S'simpleUnion'
p29
sS'inputWidth'
p30
I4096
sS'historyLength'
p31
I10
ssg20
S'py.TemporalPoolerRegion'
p32
sg22
S'UP'
p33
ssS'sensorRegionConfig'
p34
(dp35
g14
I01
sS'encoders'
p36
(dp37
sg15
(dp38
S'numCategories'
p39
I1
sS'verbosity'
p40
I0
ssg20
S'py.LanguageSensor'
p41
sg22
S'sensor'
p42
sssS'retinaScaling'
p43
F1
sS'apiKey'
p44
S'7c164cd0-fca0-11e3-80ac-f7122a45615d'
p45
sS'maxSparsity'
p46
F1
sS'filterText'
p47
I00
sS'numLabels'
p48
I1
sb.