ccopy_reg
_reconstructor
p1
(chtmresearch.frameworks.nlp.classify_htm
ClassificationModelHTM
p2
c__builtin__
object
p3
NtRp4
(dp5
S'currentDocument'
p6
NsS'retina'
p7
S'en_associative_64_univ'
p8
sS'retinaScaling'
p9
F1
sS'apiKey'
p10
S'a5593eb0-ec6c-11e4-a409-7159d0ac8188'
p11
sS'numLabels'
p12
I1
sS'verbosity'
p13
I0
sS'networkConfig'
p14
(dp15
S'classifierRegionConfig'
p16
(dp17
S'regionEnabled'
p18
I01
sS'regionParams'
p19
(dp20
S'distanceMethod'
p21
S'pctOverlapOfInput'
p22
sS'k'
I13
sS'maxCategoryCount'
p23
I1
ssS'regionType'
p24
S'py.KNNClassifierRegion'
p25
sS'regionName'
p26
S'classifier'
p27
ssS'tpRegionConfig'
p28
(dp29
g18
I01
sg19
(dp30
S'columnCount'
p31
I4096
sS'poolerType'
p32
S'simpleUnion'
p33
sS'inputWidth'
p34
I4096
sS'minHistory'
p35
I10
sS'historyLength'
p36
I10
ssg24
S'py.TemporalPoolerRegion'
p37
sg26
S'UP'
p38
ssS'sensorRegionConfig'
p39
(dp40
g18
I01
sS'encoders'
p41
(dp42
sg19
(dp43
S'numCategories'
p44
I1
sS'verbosity'
p45
I0
sS'cacheRoot'
p46
S'cache'
p47
ssg24
S'py.LanguageSensor'
p48
sg26
S'sensor'
p49
sssg46
g47
sS'maxSparsity'
p50
F1
sS'filterText'
p51
I00
sb.