ccopy_reg
_reconstructor
p1
(chtmresearch.frameworks.nlp.classify_fingerprint
ClassificationModelFingerprint
p2
c__builtin__
object
p3
NtRp4
(dp5
S'currentDocument'
p6
NsS'verbosity'
p7
I0
sS'encoder'
p8
g1
(chtmresearch.encoders.cio_encoder
CioEncoder
p9
g3
NtRp10
(dp11
S'apiKey'
p12
S'7c164cd0-fca0-11e3-80ac-f7122a45615d'
p13
sS'unionSparsity'
p14
F0.20000000000000001
sg7
I0
sS'retina'
p15
S'en_associative_64_univ'
p16
sS'retinaScaling'
p17
F1
sS'n'
I4096
sS'width'
p18
I64
sS'client'
p19
(icortipy.cortical_client
CorticalClient
p20
(dp21
g12
g13
sg7
I0
sg15
g16
sS'_session'
p22
g1
(crequests.sessions
Session
p23
g3
NtRp24
(dp25
S'cookies'
p26
g1
(crequests.cookies
RequestsCookieJar
p27
g3
NtRp28
(dp29
S'_policy'
p30
(icookielib
DefaultCookiePolicy
p31
(dp32
S'strict_rfc2965_unverifiable'
p33
I01
sS'strict_ns_domain'
p34
I0
sS'_allowed_domains'
p35
NsS'rfc2109_as_netscape'
p36
NsS'rfc2965'
p37
I00
sS'strict_domain'
p38
I00
sS'strict_ns_set_path'
p39
I00
sS'strict_ns_unverifiable'
p40
I00
sS'strict_ns_set_initial_dollar'
p41
I00
sS'hide_cookie2'
p42
I00
sS'_blocked_domains'
p43
(tsS'netscape'
p44
I01
sbsS'_cookies'
p45
(dp46
sbsS'stream'
p47
I00
sS'hooks'
p48
(dp49
S'response'
p50
(lp51
ssS'auth'
p52
NsS'trust_env'
p53
I01
sS'headers'
p54
g1
(crequests.structures
CaseInsensitiveDict
p55
g3
NtRp56
(dp57
S'_store'
p58
(dp59
S'accept-encoding'
p60
(S'Accept-Encoding'
p61
S'gzip, deflate, compress'
tp62
sS'accept'
p63
(S'Accept'
p64
S'*/*'
p65
tp66
sS'user-agent'
p67
(S'User-Agent'
p68
S'python-requests/1.2.3 CPython/2.7.10 Darwin/15.2.0'
tp69
ssbsS'cert'
p70
NsS'params'
p71
(dp72
sS'prefetch'
p73
NsS'timeout'
p74
NsS'verify'
p75
I01
sS'proxies'
p76
(dp77
sS'adapters'
p78
crequests.packages.urllib3.packages.ordered_dict
OrderedDict
p79
((lp80
(lp81
S'https://'
p82
ag1
(crequests.adapters
HTTPAdapter
p83
g3
NtRp84
(dp85
S'_pool_block'
p86
I00
sS'_pool_maxsize'
p87
I10
sS'max_retries'
p88
I0
sS'config'
p89
(dp90
sS'_pool_connections'
p91
I10
sbaa(lp92
S'http://'
p93
ag1
(g83
g3
NtRp94
(dp95
g86
I00
sg87
I10
sg88
I0
sg89
(dp96
sg91
I10
sbaatRp97
sS'max_redirects'
p98
I30
sbsS'cacheDir'
p99
S'/Users/alex/nta/nupic.research/htmresearch/encoders/CioCache'
p100
sS'useCache'
p101
I01
sS'apiUrl'
p102
S'http://numenta.cortical.io:80/rest'
p103
sbsS'targetSparsity'
p104
F0.02001953125
sS'w'
I328
sS'fingerprintType'
p105
chtmresearch.encoders
EncoderTypes
p106
(S'document'
p107
tRp108
sS'maxSparsity'
p109
F0.5
sS'height'
p110
I64
sS'description'
p111
(S'Cio Encoder'
I0
tp112
sbsS'numLabels'
p113
I1
sS'filterOptions'
p114
(dp115
S'correctSpell'
p116
I01
sS'ignoreCommon'
p117
I100
sS'removeStrings'
p118
(lp119
S'[identifier deleted]'
p120
assS'filterText'
p121
I00
sS'classifier'
p122
g1
(cnupic.algorithms.KNNClassifier
KNNClassifier
p123
g3
NtRp124
(dp125
S'_Memory'
p126
g1
(cnupic.bindings.math
_NearestNeighbor32
p127
g3
NtRp128
(S'sm_csr_1.5 9558 35 4096 1400 40 133 1 270 1 298 1 427 1 563 1 646 1 688 1 715 1 775 1 998 1 1121 1 1303 1 1434 1 1595 1 1633 1 1724 1 1858 1 1861 1 1950 1 2060 1 2061 1 2169 1 2213 1 2223 1 2271 1 2565 1 2728 1 2752 1 2769 1 2854 1 2932 1 3166 1 3551 1 3691 1 3722 1 3729 1 3779 1 3955 1 3990 1 4084 1 40 1 1 69 1 188 1 257 1 375 1 387 1 547 1 637 1 676 1 723 1 860 1 926 1 1040 1 1361 1 1710 1 1961 1 1970 1 1982 1 1983 1 2052 1 2424 1 2608 1 2631 1 2784 1 2965 1 2989 1 2997 1 3045 1 3101 1 3269 1 3368 1 3376 1 3458 1 3560 1 3580 1 3688 1 3723 1 3748 1 3967 1 4050 1 40 208 1 303 1 397 1 533 1 542 1 650 1 761 1 773 1 1236 1 1358 1 1511 1 1512 1 1591 1 1734 1 1766 1 1878 1 1895 1 1958 1 2132 1 2280 1 2324 1 2357 1 2518 1 2566 1 2597 1 2728 1 2805 1 2849 1 3053 1 3076 1 3244 1 3499 1 3510 1 3686 1 3767 1 3845 1 3935 1 3946 1 4053 1 4084 1 40 66 1 97 1 280 1 394 1 428 1 443 1 479 1 628 1 725 1 756 1 1110 1 1124 1 1132 1 1336 1 1345 1 1396 1 1428 1 1826 1 1929 1 2289 1 2298 1 2363 1 2381 1 2453 1 2480 1 2504 1 2635 1 2906 1 3129 1 3158 1 3170 1 3314 1 3358 1 3397 1 3511 1 3695 1 3719 1 3833 1 3918 1 3923 1 40 35 1 66 1 135 1 207 1 218 1 438 1 443 1 456 1 537 1 908 1 926 1 969 1 1235 1 1446 1 1568 1 1749 1 1772 1 1911 1 2001 1 2028 1 2068 1 2120 1 2404 1 2427 1 2528 1 2803 1 2884 1 2948 1 3004 1 3082 1 3084 1 3256 1 3364 1 3511 1 3526 1 3582 1 3721 1 3845 1 3975 1 4078 1 40 163 1 301 1 510 1 555 1 635 1 705 1 870 1 900 1 1530 1 1579 1 1649 1 1672 1 1678 1 1680 1 1790 1 1960 1 2035 1 2065 1 2172 1 2251 1 2333 1 2343 1 2582 1 2655 1 2667 1 2683 1 2744 1 2973 1 3036 1 3090 1 3166 1 3192 1 3391 1 3756 1 3850 1 3876 1 3901 1 4059 1 4062 1 4077 1 40 323 1 342 1 372 1 397 1 530 1 616 1 686 1 774 1 791 1 794 1 865 1 944 1 957 1 977 1 1101 1 1229 1 1394 1 1681 1 1784 1 2061 1 2264 1 2387 1 2403 1 2491 1 2654 1 2700 1 2821 1 2956 1 2988 1 3145 1 3184 1 3277 1 3334 1 3415 1 3460 1 3469 1 3691 1 3756 1 3795 1 3937 1 40 273 1 531 1 591 1 705 1 708 1 744 1 847 1 935 1 1155 1 1296 1 1415 1 1481 1 1485 1 1664 1 1842 1 1859 1 1949 1 1987 1 2014 1 2063 1 2091 1 2112 1 2120 1 2167 1 2204 1 2262 1 2273 1 2358 1 2371 1 2375 1 2415 1 2538 1 2548 1 2629 1 2685 1 2777 1 3304 1 3406 1 3764 1 3997 1 40 33 1 37 1 293 1 461 1 590 1 601 1 810 1 848 1 964 1 1047 1 1312 1 1358 1 1531 1 1736 1 1799 1 1903 1 2096 1 2100 1 2217 1 2244 1 2593 1 2714 1 2727 1 2756 1 2890 1 3004 1 3022 1 3035 1 3135 1 3523 1 3553 1 3637 1 3703 1 3704 1 3801 1 3857 1 3865 1 3870 1 3956 1 4055 1 40 150 1 263 1 309 1 375 1 413 1 529 1 578 1 599 1 814 1 841 1 1006 1 1012 1 1026 1 1323 1 1385 1 1476 1 1610 1 1662 1 1673 1 1674 1 2125 1 2330 1 2351 1 2363 1 2509 1 2569 1 2584 1 2797 1 2828 1 2919 1 2937 1 3082 1 3341 1 3502 1 3617 1 3651 1 3676 1 3737 1 4038 1 4047 1 40 41 1 128 1 316 1 424 1 538 1 884 1 889 1 1057 1 1321 1 1361 1 1416 1 1546 1 1801 1 2063 1 2296 1 2385 1 2512 1 2532 1 2579 1 2611 1 2641 1 2773 1 2864 1 3037 1 3120 1 3121 1 3147 1 3214 1 3262 1 3353 1 3357 1 3449 1 3488 1 3509 1 3552 1 3620 1 3659 1 3781 1 3885 1 4013 1 40 119 1 337 1 435 1 462 1 469 1 495 1 536 1 641 1 725 1 844 1 1182 1 1200 1 1305 1 1343 1 1368 1 1477 1 1510 1 1585 1 1863 1 1957 1 2114 1 2160 1 2290 1 2306 1 2350 1 2362 1 2407 1 2505 1 2672 1 2776 1 3216 1 3262 1 3435 1 3496 1 3554 1 3584 1 3634 1 3639 1 3652 1 3891 1 40 15 1 357 1 478 1 557 1 654 1 759 1 814 1 891 1 1073 1 1178 1 1389 1 1507 1 1511 1 1574 1 1652 1 1659 1 1713 1 1794 1 1835 1 1848 1 1856 1 1966 1 2198 1 2383 1 2457 1 2459 1 2563 1 2727 1 2804 1 2866 1 2906 1 2992 1 3099 1 3266 1 3303 1 3397 1 3777 1 3829 1 3928 1 4070 1 40 10 1 46 1 239 1 488 1 525 1 566 1 567 1 583 1 975 1 989 1 1048 1 1053 1 1147 1 1183 1 1284 1 1384 1 1399 1 1561 1 1696 1 1697 1 1770 1 2166 1 2331 1 2486 1 2488 1 2606 1 2648 1 2703 1 2764 1 2887 1 2910 1 3343 1 3387 1 3453 1 3536 1 3652 1 3787 1 3952 1 3974 1 4092 1 40 13 1 123 1 132 1 327 1 368 1 454 1 503 1 526 1 561 1 609 1 685 1 912 1 1299 1 1338 1 1437 1 1513 1 1543 1 1565 1 1712 1 1725 1 1769 1 1825 1 1853 1 1874 1 2320 1 2417 1 2433 1 2496 1 2635 1 2668 1 2929 1 2974 1 2992 1 3110 1 3181 1 3405 1 3767 1 3804 1 3828 1 3854 1 40 426 1 431 1 494 1 542 1 806 1 994 1 1141 1 1177 1 1328 1 1376 1 1413 1 1877 1 1919 1 1998 1 2056 1 2182 1 2246 1 2298 1 2398 1 2405 1 2417 1 2585 1 2625 1 2689 1 2739 1 2813 1 2957 1 2984 1 3047 1 3122 1 3169 1 3216 1 3241 1 3373 1 3375 1 3483 1 3488 1 3863 1 3952 1 3998 1 40 105 1 304 1 397 1 513 1 614 1 744 1 822 1 1076 1 1105 1 1462 1 1498 1 1741 1 1945 1 2018 1 2027 1 2140 1 2155 1 2257 1 2303 1 2387 1 2640 1 2687 1 2734 1 2911 1 2953 1 3087 1 3141 1 3206 1 3256 1 3261 1 3485 1 3523 1 3585 1 3596 1 3667 1 3737 1 3759 1 3942 1 4046 1 4060 1 40 120 1 247 1 427 1 548 1 572 1 658 1 772 1 795 1 798 1 832 1 837 1 1239 1 1334 1 1354 1 1418 1 1573 1 1595 1 1751 1 1801 1 1960 1 2306 1 2320 1 2334 1 2502 1 2565 1 2578 1 2630 1 2656 1 2794 1 3025 1 3063 1 3276 1 3353 1 3478 1 3589 1 3604 1 3628 1 3636 1 3869 1 3893 1 40 43 1 152 1 176 1 208 1 269 1 336 1 358 1 469 1 484 1 548 1 560 1 663 1 674 1 735 1 904 1 1460 1 1657 1 1659 1 1928 1 1991 1 2127 1 2163 1 2184 1 2298 1 2336 1 2353 1 2360 1 2865 1 2892 1 2907 1 2943 1 2955 1 3018 1 3047 1 3122 1 3519 1 3535 1 3536 1 3959 1 3984 1 40 6 1 191 1 225 1 231 1 309 1 400 1 588 1 631 1 634 1 948 1 1041 1 1158 1 1216 1 1302 1 1361 1 1378 1 1590 1 1592 1 1598 1 1729 1 1818 1 1907 1 1948 1 2487 1 2529 1 2587 1 2913 1 3007 1 3056 1 3140 1 3147 1 3153 1 3317 1 3463 1 3601 1 3883 1 3902 1 3913 1 3979 1 4063 1 40 162 1 226 1 894 1 914 1 945 1 1017 1 1065 1 1134 1 1239 1 1312 1 1406 1 1695 1 1714 1 1809 1 1888 1 2051 1 2364 1 2369 1 2408 1 2503 1 2522 1 2524 1 2704 1 2831 1 2872 1 2941 1 3102 1 3168 1 3220 1 3278 1 3295 1 3302 1 3473 1 3513 1 3525 1 3710 1 3801 1 3807 1 3939 1 3969 1 40 127 1 145 1 228 1 529 1 643 1 789 1 816 1 963 1 998 1 1083 1 1424 1 1540 1 1818 1 1957 1 2032 1 2166 1 2369 1 2481 1 2532 1 2573 1 2619 1 2682 1 2795 1 2823 1 2899 1 2931 1 2938 1 2990 1 3045 1 3060 1 3349 1 3394 1 3444 1 3563 1 3678 1 3781 1 3815 1 3850 1 3925 1 3997 1 40 77 1 311 1 373 1 645 1 944 1 1196 1 1227 1 1309 1 1384 1 1532 1 1595 1 1628 1 1824 1 1894 1 2043 1 2140 1 2151 1 2380 1 2436 1 2523 1 2562 1 2660 1 2687 1 2807 1 2882 1 2911 1 3007 1 3050 1 3164 1 3190 1 3196 1 3271 1 3334 1 3539 1 3633 1 3638 1 3657 1 3851 1 3860 1 3962 1 40 129 1 285 1 368 1 427 1 570 1 727 1 777 1 795 1 845 1 875 1 906 1 1052 1 1262 1 1392 1 1422 1 1629 1 1791 1 1943 1 2024 1 2234 1 2238 1 2338 1 2489 1 2536 1 2726 1 2775 1 2918 1 2939 1 2976 1 2987 1 3095 1 3136 1 3159 1 3368 1 3380 1 3461 1 3566 1 3720 1 3727 1 3740 1 40 72 1 286 1 363 1 386 1 494 1 597 1 605 1 635 1 663 1 680 1 743 1 835 1 955 1 1023 1 1188 1 1398 1 1435 1 1441 1 1533 1 1611 1 1937 1 2057 1 2184 1 2273 1 2334 1 2408 1 2446 1 2556 1 3271 1 3312 1 3351 1 3445 1 3571 1 3660 1 3752 1 3753 1 3793 1 3805 1 4048 1 4059 1 40 75 1 76 1 133 1 253 1 341 1 361 1 644 1 812 1 814 1 825 1 938 1 1020 1 1026 1 1045 1 1093 1 1123 1 1183 1 1265 1 1275 1 1297 1 1383 1 1891 1 1959 1 1963 1 2044 1 2159 1 2267 1 2433 1 2436 1 2512 1 2673 1 2767 1 2854 1 2931 1 3066 1 3608 1 3613 1 3617 1 3747 1 3773 1 40 15 1 151 1 233 1 369 1 667 1 678 1 785 1 944 1 953 1 1025 1 1078 1 1083 1 1108 1 1330 1 1332 1 1708 1 1804 1 1942 1 2036 1 2194 1 2215 1 2227 1 2258 1 2454 1 2472 1 2592 1 2605 1 2760 1 2788 1 2832 1 2875 1 3060 1 3149 1 3195 1 3201 1 3693 1 3959 1 3985 1 4002 1 4054 1 40 43 1 65 1 172 1 181 1 233 1 447 1 476 1 615 1 805 1 861 1 1006 1 1081 1 1238 1 1365 1 1541 1 1545 1 1688 1 1721 1 1919 1 1966 1 2237 1 2392 1 2477 1 2514 1 2527 1 2635 1 2735 1 2880 1 2981 1 2982 1 3130 1 3135 1 3163 1 3179 1 3194 1 3327 1 3723 1 3747 1 3778 1 4057 1 40 46 1 126 1 202 1 475 1 577 1 591 1 675 1 680 1 811 1 840 1 859 1 1165 1 1168 1 1170 1 1272 1 1301 1 1310 1 1376 1 1401 1 1631 1 1711 1 1755 1 1786 1 1838 1 1980 1 2163 1 2272 1 2504 1 2725 1 2932 1 3016 1 3040 1 3057 1 3148 1 3339 1 3383 1 3587 1 3601 1 3704 1 4069 1 40 149 1 585 1 807 1 870 1 1005 1 1055 1 1158 1 1183 1 1276 1 1335 1 1415 1 1494 1 1558 1 1596 1 1640 1 1901 1 2122 1 2162 1 2242 1 2275 1 2362 1 2453 1 2729 1 2753 1 2841 1 2982 1 3009 1 3118 1 3199 1 3398 1 3439 1 3515 1 3573 1 3623 1 3637 1 3794 1 3900 1 3944 1 3956 1 4001 1 40 124 1 253 1 354 1 356 1 394 1 414 1 466 1 515 1 586 1 677 1 909 1 1054 1 1078 1 1141 1 1184 1 1412 1 1462 1 1485 1 1673 1 1712 1 2202 1 2337 1 2563 1 2601 1 2638 1 2639 1 2672 1 2852 1 2905 1 3010 1 3051 1 3197 1 3206 1 3229 1 3265 1 3380 1 3467 1 3713 1 3826 1 3870 1 40 67 1 148 1 267 1 355 1 384 1 819 1 844 1 853 1 1002 1 1005 1 1223 1 1266 1 1290 1 1546 1 1664 1 1787 1 1873 1 1950 1 1973 1 2086 1 2353 1 2413 1 2650 1 2713 1 2736 1 2744 1 2917 1 3080 1 3104 1 3163 1 3180 1 3234 1 3240 1 3276 1 3449 1 3496 1 3527 1 3528 1 3895 1 3928 1 40 74 1 107 1 203 1 312 1 569 1 623 1 648 1 707 1 734 1 833 1 850 1 930 1 1179 1 1356 1 1432 1 1450 1 1494 1 1719 1 1747 1 1786 1 1789 1 1911 1 1964 1 1977 1 2021 1 2149 1 2171 1 2175 1 2341 1 2367 1 2432 1 2677 1 2834 1 2887 1 2888 1 3186 1 3270 1 3313 1 3874 1 3932 1 40 194 1 250 1 451 1 516 1 592 1 663 1 695 1 943 1 1004 1 1006 1 1018 1 1108 1 1261 1 1361 1 1691 1 2062 1 2112 1 2202 1 2257 1 2314 1 2484 1 2490 1 2546 1 2650 1 2790 1 2939 1 3106 1 3251 1 3371 1 3389 1 3607 1 3677 1 3708 1 3787 1 3835 1 3840 1 3887 1 3906 1 4031 1 4079 1 40 16 1 23 1 184 1 189 1 275 1 536 1 672 1 1014 1 1068 1 1108 1 1199 1 1282 1 1285 1 1288 1 1328 1 1397 1 1426 1 1667 1 1837 1 1892 1 2048 1 2218 1 2282 1 2427 1 2487 1 2715 1 2990 1 3102 1 3278 1 3380 1 3587 1 3861 1 3905 1 3924 1 3976 1 3984 1 4046 1 4057 1 4066 1 4084 1 '
tbsS'_mean'
p129
NsS'_M'
p130
NsS'binarizationThreshold'
p131
F0.5
sS'_partitionIdMap'
p132
(dp133
I0
(lp134
I0
asI1
(lp135
I1
asI2
(lp136
I2
asI3
(lp137
I3
asI4
(lp138
I4
asI5
(lp139
I5
asI6
(lp140
I6
asI7
(lp141
I7
asI8
(lp142
I8
asI9
(lp143
I9
asI10
(lp144
I10
asI11
(lp145
I11
asI12
(lp146
I12
asI13
(lp147
I13
asI14
(lp148
I14
asI15
(lp149
I15
asI16
(lp150
I16
asI17
(lp151
I17
asI18
(lp152
I18
asI19
(lp153
I19
asI20
(lp154
I20
asI21
(lp155
I21
asI22
(lp156
I22
asI23
(lp157
I23
asI24
(lp158
I24
asI25
(lp159
I25
asI26
(lp160
I26
asI27
(lp161
I27
asI28
(lp162
I28
asI29
(lp163
I29
asI30
(lp164
I30
asI31
(lp165
I31
asI32
(lp166
I32
asI33
(lp167
I33
asI34
(lp168
I34
assS'_iterationIdx'
p169
I-1
sS'_finishedLearning'
p170
I00
sS'_s'
p171
NsS'numWinners'
p172
I0
sS'version'
p173
I1
sS'_nextTrainingIndices'
p174
NsS'_vt'
p175
NsS'_nc'
p176
NsS'numSVDDims'
p177
NsS'distanceMethod'
p178
S'pctOverlapOfInput'
p179
sS'cellsPerCol'
p180
I0
sS'doBinarization'
p181
I00
sS'distanceNorm'
p182
F2
sS'fractionOfMax'
p183
NsS'exact'
p184
I00
sS'_specificIndexTraining'
p185
I00
sS'_numPatterns'
p186
I35
sS'_categoryList'
p187
(lp188
I0
aI0
aI0
aI0
aI0
aI0
aI0
aI0
aI0
aI0
aI0
aI0
aI0
aI0
aI0
aI0
aI0
aI0
aI0
aI0
aI0
aI0
aI0
aI0
aI0
aI0
aI0
aI0
aI0
aI0
aI0
aI0
aI0
aI0
aI0
asS'_protoSizes'
p189
NsS'replaceDuplicates'
p190
I00
sS'useSparseMemory'
p191
I01
sS'relativeThreshold'
p192
I00
sS'k'
I1
sS'sparseThreshold'
p193
F0.10000000000000001
sS'maxStoredPatterns'
p194
I-1
sS'_partitionIdList'
p195
(lp196
I0
aI1
aI2
aI3
aI4
aI5
aI6
aI7
aI8
aI9
aI10
aI11
aI12
aI13
aI14
aI15
aI16
aI17
aI18
aI19
aI20
aI21
aI22
aI23
aI24
aI25
aI26
aI27
aI28
aI29
aI30
aI31
aI32
aI33
aI34
asS'_adaptiveSVDDims'
p197
I00
sS'fixedCapacity'
p198
I00
sS'distThreshold'
p199
I0
sg7
I0
sS'minSparsity'
p200
F0
sS'numSVDSamples'
p201
Nsbsb.