ccopy_reg
_reconstructor
p1
(chtmresearch.frameworks.nlp.classify_htm
ClassificationModelHTM
p2
c__builtin__
object
p3
NtRp4
(dp5
S'currentDocument'
p6
NsS'verbosity'
p7
I0
sS'retina'
p8
S'en_associative_64_univ'
p9
sS'networkConfig'
p10
(dp11
S'classifierRegionConfig'
p12
(dp13
S'regionEnabled'
p14
I01
sS'regionParams'
p15
(dp16
S'distanceMethod'
p17
S'pctOverlapOfInput'
p18
sS'k'
I13
sS'maxCategoryCount'
p19
I1
ssS'regionType'
p20
S'py.KNNClassifierRegion'
p21
sS'regionName'
p22
S'classifier'
p23
ssS'tmRegionConfig'
p24
(dp25
g14
I01
sg15
(dp26
S'columnCount'
p27
I4096
sS'activationThreshold'
p28
I22
sS'cellsPerColumn'
p29
I16
sS'connectedPermanence'
p30
F0.29999999999999999
sS'minThreshold'
p31
I20
sS'inputWidth'
p32
I4096
sS'permanenceIncrement'
p33
F0.10000000000000001
sS'initialPermanence'
p34
F0.20999999999999999
sS'seed'
p35
I1960
sS'permanenceDecrement'
p36
F0.10000000000000001
sS'maxNewSynapseCount'
p37
I40
sS'temporalImp'
p38
S'tm'
p39
ssg20
S'py.TMRegion'
p40
sg22
S'TM'
p41
ssS'sensorRegionConfig'
p42
(dp43
g14
I01
sS'encoders'
p44
(dp45
sg15
(dp46
S'numCategories'
p47
I1
sS'verbosity'
p48
I0
ssg20
S'py.LanguageSensor'
p49
sg22
S'sensor'
p50
sssS'retinaScaling'
p51
F1
sS'apiKey'
p52
S'a5593eb0-ec6c-11e4-a409-7159d0ac8188'
p53
sS'maxSparsity'
p54
F1
sS'filterText'
p55
I00
sS'numLabels'
p56
I1
sb.