ccopy_reg
_reconstructor
p1
(chtmresearch.frameworks.nlp.classify_htm
ClassificationModelHTM
p2
c__builtin__
object
p3
NtRp4
(dp5
S'currentDocument'
p6
NsS'retina'
p7
S'en_associative_64_univ'
p8
sS'retinaScaling'
p9
F1
sS'apiKey'
p10
S'a5593eb0-ec6c-11e4-a409-7159d0ac8188'
p11
sS'numLabels'
p12
I1
sS'filterOptions'
p13
(dp14
S'correctSpell'
p15
I01
sS'ignoreCommon'
p16
I100
sS'removeStrings'
p17
(lp18
S'[identifier deleted]'
p19
assS'verbosity'
p20
I0
sS'networkConfig'
p21
(dp22
S'classifierRegionConfig'
p23
(dp24
S'regionEnabled'
p25
I01
sS'regionParams'
p26
(dp27
S'distanceMethod'
p28
S'pctOverlapOfInput'
p29
sS'k'
I13
sS'maxCategoryCount'
p30
I1
ssS'regionType'
p31
S'py.KNNClassifierRegion'
p32
sS'regionName'
p33
S'classifier'
p34
ssS'tpRegionConfig'
p35
(dp36
g25
I01
sg26
(dp37
S'columnCount'
p38
I65536
sS'poolerType'
p39
S'simpleUnion'
p40
sS'inputWidth'
p41
I65536
sS'minHistory'
p42
I10
sS'historyLength'
p43
I10
ssg31
S'py.TemporalPoolerRegion'
p44
sg33
S'UP'
p45
ssS'tmRegionConfig'
p46
(dp47
g25
I01
sg26
(dp48
g38
I4096
sS'activationThreshold'
p49
I22
sS'cellsPerColumn'
p50
I16
sS'connectedPermanence'
p51
F0.29999999999999999
sS'minThreshold'
p52
I20
sS'inputWidth'
p53
I4096
sS'permanenceIncrement'
p54
F0.10000000000000001
sS'initialPermanence'
p55
F0.20999999999999999
sS'seed'
p56
I1960
sS'permanenceDecrement'
p57
F0.10000000000000001
sS'maxNewSynapseCount'
p58
I40
sS'temporalImp'
p59
S'tm'
p60
ssg31
S'py.TMRegion'
p61
sg33
S'TM'
p62
ssS'sensorRegionConfig'
p63
(dp64
g25
I01
sS'encoders'
p65
(dp66
sg26
(dp67
S'numCategories'
p68
I1
sS'verbosity'
p69
I0
ssg31
S'py.LanguageSensor'
p70
sg33
S'sensor'
p71
sssS'maxSparsity'
p72
F1
sS'filterText'
p73
I00
sb.