ccopy_reg
_reconstructor
p1
(chtmresearch.frameworks.nlp.classify_htm
ClassificationModelHTM
p2
c__builtin__
object
p3
NtRp4
(dp5
S'currentDocument'
p6
NsS'retina'
p7
S'en_associative_64_univ'
p8
sS'retinaScaling'
p9
F1
sS'apiKey'
p10
S'a5593eb0-ec6c-11e4-a409-7159d0ac8188'
p11
sS'numLabels'
p12
I1
sS'verbosity'
p13
I0
sS'networkConfig'
p14
(dp15
S'classifierRegionConfig'
p16
(dp17
S'regionEnabled'
p18
I01
sS'regionParams'
p19
(dp20
S'distanceMethod'
p21
S'pctOverlapOfInput'
p22
sS'k'
I13
sS'maxCategoryCount'
p23
I1
ssS'regionType'
p24
S'py.KNNClassifierRegion'
p25
sS'regionName'
p26
S'classifier'
p27
ssS'sensorRegionConfig'
p28
(dp29
g18
I01
sS'encoders'
p30
(dp31
sg19
(dp32
S'numCategories'
p33
I1
sS'verbosity'
p34
I0
sS'cacheRoot'
p35
S'cache'
p36
ssg24
S'py.LanguageSensor'
p37
sg26
S'sensor'
p38
sssg35
g36
sS'maxSparsity'
p39
F1
sS'filterText'
p40
I00
sb.