ccopy_reg
_reconstructor
p1
(chtmresearch.frameworks.nlp.classify_htm
ClassificationModelHTM
p2
c__builtin__
object
p3
NtRp4
(dp5
S'currentDocument'
p6
NsS'verbosity'
p7
I0
sS'retina'
p8
S'en_associative_64_univ'
p9
sS'networkConfig'
p10
(dp11
S'classifierRegionConfig'
p12
(dp13
S'regionEnabled'
p14
I01
sS'regionParams'
p15
(dp16
S'distanceMethod'
p17
S'pctOverlapOfInput'
p18
sS'k'
I5000
sS'maxCategoryCount'
p19
I1
ssS'regionType'
p20
S'py.KNNClassifierRegion'
p21
sS'regionName'
p22
S'classifier'
p23
ssS'sensorRegionConfig'
p24
(dp25
g14
I01
sS'encoders'
p26
(dp27
sg15
(dp28
S'numCategories'
p29
I1
sS'verbosity'
p30
I0
ssg20
S'py.LanguageSensor'
p31
sg22
S'sensor'
p32
sssS'retinaScaling'
p33
F1
sS'apiKey'
p34
S'7c164cd0-fca0-11e3-80ac-f7122a45615d'
p35
sS'maxSparsity'
p36
F1
sS'filterText'
p37
I00
sS'numLabels'
p38
I1
sb.