ccopy_reg
_reconstructor
p1
(chtmresearch.frameworks.nlp.classify_htm
ClassificationModelHTM
p2
c__builtin__
object
p3
NtRp4
(dp5
S'currentDocument'
p6
NsS'verbosity'
p7
I0
sS'retina'
p8
S'en_associative_64_univ'
p9
sS'networkConfig'
p10
(dp11
S'classifierRegionConfig'
p12
(dp13
S'regionEnabled'
p14
I01
sS'regionParams'
p15
(dp16
S'distanceMethod'
p17
S'pctOverlapOfInput'
p18
sS'k'
I13
sS'maxCategoryCount'
p19
I1
ssS'regionType'
p20
S'py.KNNClassifierRegion'
p21
sS'regionName'
p22
S'classifier'
p23
ssS'tpRegionConfig'
p24
(dp25
g14
I01
sg15
(dp26
S'columnCount'
p27
I4096
sS'poolerType'
p28
S'simpleUnion'
p29
sS'inputWidth'
p30
I4096
sS'minHistory'
p31
I10
sS'historyLength'
p32
I10
ssg20
S'py.TemporalPoolerRegion'
p33
sg22
S'UP'
p34
ssS'sensorRegionConfig'
p35
(dp36
g14
I01
sS'encoders'
p37
(dp38
sg15
(dp39
S'numCategories'
p40
I1
sS'verbosity'
p41
I0
ssg20
S'py.LanguageSensor'
p42
sg22
S'sensor'
p43
sssS'retinaScaling'
p44
F1
sS'apiKey'
p45
S'a5593eb0-ec6c-11e4-a409-7159d0ac8188'
p46
sS'maxSparsity'
p47
F1
sS'filterText'
p48
I00
sS'numLabels'
p49
I1
sb.